; Function Attrs: mustprogress uwtable
define noundef zeroext i1 @_Z9lmfit_expiPKdS0_S0_Pdbii(i32 noundef %0, ptr noundef %1, ptr noundef %2, ptr noundef %3, ptr noundef %4, i1 noundef zeroext %5, i32 noundef %6, i32 noundef %7) local_unnamed_addr #0 {
  %9 = alloca %struct.lmcurve_data_struct, align 8
  %10 = alloca %struct.lm_control_struct, align 8
  %or.cond = icmp ult i32 %6, 11
  br i1 %or.cond, label %14, label %11

11:                                               ; preds = %8
  %12 = load ptr, ptr @stderr, align 8, !tbaa !4
  %13 = tail call i32 (ptr, ptr, ...) @fprintf(ptr noundef %12, ptr noundef nonnull @.str, i32 noundef %6, i32 noundef 10) #7
  br label %88

14:                                               ; preds = %8
  call void @llvm.lifetime.start.p0(i64 72, ptr nonnull %10) #8
  %15 = tail call noundef i32 @_Z11effnNparamsi(i32 noundef %6)
  call void @llvm.memcpy.p0.p0.i64(ptr noundef nonnull align 8 dereferenceable(72) %10, ptr noundef nonnull align 8 dereferenceable(72) @lm_control_double, i64 72, i1 false), !tbaa.struct !9
  %16 = zext i1 %5 to i32
  %17 = getelementptr inbounds nuw i8, ptr %10, i64 56
  store i32 %16, ptr %17, align 8, !tbaa !14
  %18 = getelementptr inbounds nuw i8, ptr %10, i64 60
  store i32 0, ptr %18, align 4, !tbaa !16
  %19 = getelementptr inbounds nuw i8, ptr %10, i64 64
  store i32 0, ptr %19, align 8, !tbaa !17
  %20 = tail call noundef ptr @_Z11save_callocPKcS0_imm(ptr noundef nonnull @.str.1, ptr noundef nonnull @.str.2, i32 noundef 141, i64 noundef 1, i64 noundef 24)
  br i1 %5, label %21, label %.thread68

21:                                               ; preds = %14
  %22 = tail call i32 (ptr, ...) @printf(ptr noundef nonnull dereferenceable(1) @.str.3, ptr noundef nonnull @.str.4, ptr noundef nonnull @.str.5)
  %23 = icmp sgt i32 %7, 0
  br i1 %23, label %.preheader.preheader, label %.split.us.preheader

.thread68:                                        ; preds = %14
  %24 = icmp sgt i32 %7, 0
  br i1 %24, label %.preheader.preheader, label %.critedge.preheader

.preheader.preheader:                             ; preds = %.thread68, %21
  br label %.preheader

.preheader:                                       ; preds = %.preheader.preheader, %.preheader
  %.148 = phi i32 [ %.2, %.preheader ], [ %15, %.preheader.preheader ]
  %.046 = phi i32 [ %.1, %.preheader ], [ %7, %.preheader.preheader ]
  %25 = add nsw i32 %.148, -1
  %26 = shl nuw i32 1, %25
  %27 = and i32 %26, %.046
  %28 = icmp ne i32 %27, 0
  %.2 = select i1 %28, i32 %25, i32 %.148
  %29 = select i1 %28, i32 %26, i32 0
  %.1 = sub nsw i32 %.046, %29
  %30 = icmp sgt i32 %.2, 0
  %31 = and i1 %28, %30
  br i1 %31, label %.preheader, label %32, !llvm.loop !18

32:                                               ; preds = %.preheader
  br i1 %5, label %.thread, label %.critedge.preheader

.thread:                                          ; preds = %32
  %33 = tail call noundef i32 @_Z11effnNparamsi(i32 noundef %6)
  %34 = tail call i32 (ptr, ...) @printf(ptr noundef nonnull dereferenceable(1) @.str.6, i32 noundef %.2, i32 noundef %33)
  br label %.split.us.preheader

.critedge.preheader:                              ; preds = %32, %.thread68
  %.04767 = phi i32 [ %15, %.thread68 ], [ %.2, %32 ]
  %35 = zext nneg i32 %6 to i64
  %36 = getelementptr inbounds nuw [12 x ptr], ptr @lmcurves, i64 0, i64 %35
  %37 = getelementptr inbounds nuw i8, ptr %9, i64 8
  %38 = getelementptr inbounds nuw i8, ptr %9, i64 16
  %39 = getelementptr inbounds nuw i8, ptr %9, i64 24
  br label %.critedge

.split.us.preheader:                              ; preds = %21, %.thread
  %.04764 = phi i32 [ %.2, %.thread ], [ %15, %21 ]
  %40 = zext nneg i32 %6 to i64
  %41 = getelementptr inbounds nuw [12 x ptr], ptr @lmcurves, i64 0, i64 %40
  %42 = getelementptr inbounds nuw i8, ptr %9, i64 8
  %43 = getelementptr inbounds nuw i8, ptr %9, i64 16
  %44 = getelementptr inbounds nuw i8, ptr %9, i64 24
  %45 = getelementptr inbounds nuw i8, ptr %20, i64 8
  %46 = getelementptr inbounds nuw i8, ptr %20, i64 16
  %47 = getelementptr inbounds nuw i8, ptr %20, i64 12
  br label %.split.us

.split.us:                                        ; preds = %.split.us.preheader, %.critedge.us
  %.050.us = phi i32 [ %61, %.critedge.us ], [ 0, %.split.us.preheader ]
  %.049.us = phi double [ %50, %.critedge.us ], [ 1.000000e+12, %.split.us.preheader ]
  %48 = load ptr, ptr %41, align 8, !tbaa !20
  call void @llvm.lifetime.start.p0(i64 32, ptr nonnull %9) #8
  store ptr %1, ptr %9, align 8, !tbaa !21
  store ptr %2, ptr %42, align 8, !tbaa !24
  store ptr %3, ptr %43, align 8, !tbaa !25
  store ptr %48, ptr %44, align 8, !tbaa !26
  call void @_Z5lmminiPdiPKdPKvPFvS1_iS3_S_PiEPK17lm_control_structP16lm_status_struct(i32 noundef %.04764, ptr noundef %4, i32 noundef %0, ptr noundef null, ptr noundef nonnull %9, ptr noundef nonnull @_ZL16lmcurve_evaluatePKdiPKvPdPi, ptr noundef nonnull %10, ptr noundef %20)
  call void @llvm.lifetime.end.p0(i64 32, ptr nonnull %9) #8
  %49 = load double, ptr %20, align 8, !tbaa !27
  %50 = fmul double %49, %49
  %51 = load i32, ptr %45, align 8, !tbaa !29
  %52 = load i32, ptr %46, align 8, !tbaa !30
  %53 = load i32, ptr %47, align 4, !tbaa !31
  %54 = sext i32 %53 to i64
  %55 = getelementptr inbounds [0 x ptr], ptr @lm_infmsg, i64 0, i64 %54
  %56 = load ptr, ptr %55, align 8, !tbaa !32
  %57 = call i32 (ptr, ...) @printf(ptr noundef nonnull dereferenceable(1) @.str.7, double noundef %49, i32 noundef %51, i32 noundef %52, ptr noundef %56)
  %58 = call i32 (ptr, ...) @printf(ptr noundef nonnull dereferenceable(1) @.str.8, i32 noundef %.050.us, double noundef %50)
  %59 = call noundef i32 @_Z11effnNparamsi(i32 noundef %6)
  %60 = icmp sgt i32 %59, 0
  br i1 %60, label %.lr.ph.us, label %.critedge.us

.critedge.us:                                     ; preds = %.lr.ph.us, %.split.us
  %putchar.us = call i32 @putchar(i32 10)
  %61 = add nuw nsw i32 %.050.us, 1
  %62 = fsub double %.049.us, %50
  %63 = call double @llvm.fabs.f64(double %62)
  %64 = load double, ptr %10, align 8, !tbaa !34
  %65 = fmul double %50, %64
  %66 = call double @llvm.fabs.f64(double %65)
  %67 = fcmp ogt double %63, %66
  %68 = icmp samesign ult i32 %.050.us, 99
  %69 = select i1 %67, i1 %68, i1 false
  br i1 %69, label %.split.us, label %.split60.us, !llvm.loop !35

.lr.ph.us:                                        ; preds = %.split.us, %.lr.ph.us
  %indvars.iv = phi i64 [ %indvars.iv.next, %.lr.ph.us ], [ 0, %.split.us ]
  %70 = getelementptr inbounds nuw double, ptr %4, i64 %indvars.iv
  %71 = load double, ptr %70, align 8, !tbaa !10
  %72 = call i32 (ptr, ...) @printf(ptr noundef nonnull dereferenceable(1) @.str.9, double noundef %71)
  %indvars.iv.next = add nuw nsw i64 %indvars.iv, 1
  %73 = call noundef i32 @_Z11effnNparamsi(i32 noundef %6)
  %74 = sext i32 %73 to i64
  %75 = icmp slt i64 %indvars.iv.next, %74
  br i1 %75, label %.lr.ph.us, label %.critedge.us, !llvm.loop !36

.critedge:                                        ; preds = %.critedge.preheader, %.critedge
  %.050 = phi i32 [ %79, %.critedge ], [ 0, %.critedge.preheader ]
  %.049 = phi double [ %78, %.critedge ], [ 1.000000e+12, %.critedge.preheader ]
  %76 = load ptr, ptr %36, align 8, !tbaa !20
  call void @llvm.lifetime.start.p0(i64 32, ptr nonnull %9) #8
  store ptr %1, ptr %9, align 8, !tbaa !21
  store ptr %2, ptr %37, align 8, !tbaa !24
  store ptr %3, ptr %38, align 8, !tbaa !25
  store ptr %76, ptr %39, align 8, !tbaa !26
  call void @_Z5lmminiPdiPKdPKvPFvS1_iS3_S_PiEPK17lm_control_structP16lm_status_struct(i32 noundef %.04767, ptr noundef %4, i32 noundef %0, ptr noundef null, ptr noundef nonnull %9, ptr noundef nonnull @_ZL16lmcurve_evaluatePKdiPKvPdPi, ptr noundef nonnull %10, ptr noundef %20)
  call void @llvm.lifetime.end.p0(i64 32, ptr nonnull %9) #8
  %77 = load double, ptr %20, align 8, !tbaa !27
  %78 = fmul double %77, %77
  %79 = add nuw nsw i32 %.050, 1
  %80 = fsub double %.049, %78
  %81 = call double @llvm.fabs.f64(double %80)
  %82 = load double, ptr %10, align 8, !tbaa !34
  %83 = fmul double %78, %82
  %84 = call double @llvm.fabs.f64(double %83)
  %85 = fcmp ogt double %81, %84
  %86 = icmp samesign ult i32 %.050, 99
  %87 = select i1 %85, i1 %86, i1 false
  br i1 %87, label %.critedge, label %.split60.us, !llvm.loop !35

.split60.us:                                      ; preds = %.critedge, %.critedge.us
  call void @_Z9save_freePKcS0_iPv(ptr noundef nonnull @.str.1, ptr noundef nonnull @.str.2, i32 noundef 194, ptr noundef nonnull %20)
  call void @llvm.lifetime.end.p0(i64 72, ptr nonnull %10) #8
  br label %88

88:                                               ; preds = %.split60.us, %11
  ret i1 %or.cond
}